; Function Attrs: nounwind uwtable
define i32 @Fraig_ManReadConflicts(ptr noundef readonly captures(none) %0) local_unnamed_addr #2 {
  %2 = getelementptr inbounds nuw i8, ptr %0, i64 232
  %3 = load ptr, ptr %2, align 8, !tbaa !31
  %.not = icmp eq ptr %3, null
  br i1 %.not, label %6, label %4

4:                                                ; preds = %1
  %5 = tail call i32 @Msat_SolverReadBackTracks(ptr noundef nonnull %3) #7
  br label %6

6:                                                ; preds = %1, %4
  %7 = phi i32 [ %5, %4 ], [ 0, %1 ]
  ret i32 %7
}